target datalayout = "e-m:e-p270:32:32-p271:32:32-p272:64:64-i64:64-i128:128-f80:128-n8:16:32:64-S128"
target triple = "x86_64-pc-linux-gnu"

%"class.std::vector.3" = type { %"struct.std::_Vector_base.4" }
%"struct.std::_Vector_base.4" = type { %"struct.std::_Vector_base<unsigned char, std::allocator<unsigned char>>::_Vector_impl" }
%"struct.std::_Vector_base<unsigned char, std::allocator<unsigned char>>::_Vector_impl" = type { %"struct.std::_Vector_base<unsigned char, std::allocator<unsigned char>>::_Vector_impl_data" }
%"struct.std::_Vector_base<unsigned char, std::allocator<unsigned char>>::_Vector_impl_data" = type { ptr, ptr, ptr }
%"struct.std::_Vector_base.17" = type { %"struct.std::_Vector_base<std::vector<unsigned char>, std::allocator<std::vector<unsigned char>>>::_Vector_impl" }
%"struct.std::_Vector_base<std::vector<unsigned char>, std::allocator<std::vector<unsigned char>>>::_Vector_impl" = type { %"struct.std::_Vector_base<std::vector<unsigned char>, std::allocator<std::vector<unsigned char>>>::_Vector_impl_data" }
%"struct.std::_Vector_base<std::vector<unsigned char>, std::allocator<std::vector<unsigned char>>>::_Vector_impl_data" = type { ptr, ptr, ptr }
%"class.cv::Range" = type { i32, i32 }
%class.anon = type { ptr, ptr }

; Function Attrs: mustprogress nounwind uwtable
define linkonce_odr hidden void @_ZNSt12_Destroy_auxILb1EE9__destroyIPhEEvT_S3_(ptr noundef %0, ptr noundef %1) #0 comdat align 2 {
  %3 = alloca ptr, align 8
  %4 = alloca ptr, align 8
  store ptr %0, ptr %3, align 8, !tbaa !27
  store ptr %1, ptr %4, align 8, !tbaa !27
  ret void
}

; Function Attrs: inlinehint mustprogress uwtable
define linkonce_odr void @_ZSt8_DestroyIPhEvT_S1_(ptr noundef %0, ptr noundef %1) #6 comdat {
  %3 = alloca ptr, align 8
  %4 = alloca ptr, align 8
  store ptr %0, ptr %3, align 8, !tbaa !27
  store ptr %1, ptr %4, align 8, !tbaa !27
  %5 = load ptr, ptr %3, align 8, !tbaa !27
  %6 = load ptr, ptr %4, align 8, !tbaa !27
  call void @_ZNSt12_Destroy_auxILb1EE9__destroyIPhEEvT_S3_(ptr noundef %5, ptr noundef %6)
  ret void
}

; Function Attrs: noinline noreturn nounwind uwtable
define linkonce_odr hidden void @__clang_call_terminate(ptr noundef %0) #13 comdat {
  %2 = call ptr @__cxa_begin_catch(ptr %0) #21
  call void @_ZSt9terminatev() #20
  unreachable
}

; Function Attrs: inlinehint mustprogress uwtable
define linkonce_odr void @_ZSt8_DestroyIPhhEvT_S1_RSaIT0_E(ptr noundef %0, ptr noundef %1, ptr noundef nonnull align 1 dereferenceable(1) %2) #6 comdat {
  %4 = alloca ptr, align 8
  %5 = alloca ptr, align 8
  %6 = alloca ptr, align 8
  store ptr %0, ptr %4, align 8, !tbaa !27
  store ptr %1, ptr %5, align 8, !tbaa !27
  store ptr %2, ptr %6, align 8, !tbaa !98
  %7 = load ptr, ptr %4, align 8, !tbaa !27
  %8 = load ptr, ptr %5, align 8, !tbaa !27
  call void @_ZSt8_DestroyIPhEvT_S1_(ptr noundef %7, ptr noundef %8)
  ret void
}

; Function Attrs: mustprogress nounwind uwtable
define linkonce_odr hidden noundef nonnull align 1 dereferenceable(1) ptr @_ZNSt12_Vector_baseIhSaIhEE19_M_get_Tp_allocatorEv(ptr noundef nonnull align 8 dereferenceable(24) %0) #0 comdat align 2 {
  %2 = alloca ptr, align 8
  store ptr %0, ptr %2, align 8, !tbaa !346
  %3 = load ptr, ptr %2, align 8
  %4 = getelementptr inbounds nuw %"struct.std::_Vector_base.4", ptr %3, i32 0, i32 0
  ret ptr %4
}

; Function Attrs: mustprogress nounwind uwtable
define linkonce_odr hidden void @_ZNSt6vectorIhSaIhEE15_M_erase_at_endEPh(ptr noundef nonnull align 8 dereferenceable(24) %0, ptr noundef %1) #0 comdat align 2 personality ptr @__gxx_personality_v0 {
  %3 = alloca ptr, align 8
  %4 = alloca ptr, align 8
  %5 = alloca i64, align 8
  store ptr %0, ptr %3, align 8, !tbaa !72
  store ptr %1, ptr %4, align 8, !tbaa !27
  %6 = load ptr, ptr %3, align 8
  call void @llvm.lifetime.start.p0(i64 8, ptr %5) #21
  %7 = getelementptr inbounds nuw %"struct.std::_Vector_base.4", ptr %6, i32 0, i32 0
  %8 = getelementptr inbounds nuw %"struct.std::_Vector_base<unsigned char, std::allocator<unsigned char>>::_Vector_impl_data", ptr %7, i32 0, i32 1
  %9 = load ptr, ptr %8, align 8, !tbaa !79
  %10 = load ptr, ptr %4, align 8, !tbaa !27
  %11 = ptrtoint ptr %9 to i64
  %12 = ptrtoint ptr %10 to i64
  %13 = sub i64 %11, %12
  store i64 %13, ptr %5, align 8, !tbaa !82
  %14 = load i64, ptr %5, align 8, !tbaa !82
  %15 = icmp ne i64 %14, 0
  br i1 %15, label %16, label %26

16:                                               ; preds = %2
  %17 = load ptr, ptr %4, align 8, !tbaa !27
  %18 = getelementptr inbounds nuw %"struct.std::_Vector_base.4", ptr %6, i32 0, i32 0
  %19 = getelementptr inbounds nuw %"struct.std::_Vector_base<unsigned char, std::allocator<unsigned char>>::_Vector_impl_data", ptr %18, i32 0, i32 1
  %20 = load ptr, ptr %19, align 8, !tbaa !79
  %21 = call noundef nonnull align 1 dereferenceable(1) ptr @_ZNSt12_Vector_baseIhSaIhEE19_M_get_Tp_allocatorEv(ptr noundef nonnull align 8 dereferenceable(24) %6) #21
  invoke void @_ZSt8_DestroyIPhhEvT_S1_RSaIT0_E(ptr noundef %17, ptr noundef %20, ptr noundef nonnull align 1 dereferenceable(1) %21)
          to label %22 unwind label %27

22:                                               ; preds = %16
  %23 = load ptr, ptr %4, align 8, !tbaa !27
  %24 = getelementptr inbounds nuw %"struct.std::_Vector_base.4", ptr %6, i32 0, i32 0
  %25 = getelementptr inbounds nuw %"struct.std::_Vector_base<unsigned char, std::allocator<unsigned char>>::_Vector_impl_data", ptr %24, i32 0, i32 1
  store ptr %23, ptr %25, align 8, !tbaa !79
  br label %26

26:                                               ; preds = %22, %2
  call void @llvm.lifetime.end.p0(i64 8, ptr %5) #21
  ret void

27:                                               ; preds = %16
  %28 = landingpad { ptr, i32 }
          catch ptr null
  %29 = extractvalue { ptr, i32 } %28, 0
  call void @__clang_call_terminate(ptr %29) #20
  unreachable
}

; Function Attrs: mustprogress nounwind uwtable
define linkonce_odr hidden void @_ZNSt6vectorIhSaIhEE5clearEv(ptr noundef nonnull align 8 dereferenceable(24) %0) #0 comdat align 2 {
  %2 = alloca ptr, align 8
  store ptr %0, ptr %2, align 8, !tbaa !72
  %3 = load ptr, ptr %2, align 8
  %4 = getelementptr inbounds nuw %"struct.std::_Vector_base.4", ptr %3, i32 0, i32 0
  %5 = getelementptr inbounds nuw %"struct.std::_Vector_base<unsigned char, std::allocator<unsigned char>>::_Vector_impl_data", ptr %4, i32 0, i32 0
  %6 = load ptr, ptr %5, align 8, !tbaa !80
  call void @_ZNSt6vectorIhSaIhEE15_M_erase_at_endEPh(ptr noundef nonnull align 8 dereferenceable(24) %3, ptr noundef %6) #21
  ret void
}

; Function Attrs: mustprogress nounwind uwtable
define linkonce_odr hidden noundef nonnull align 8 dereferenceable(24) ptr @_ZNSt6vectorIS_IhSaIhEESaIS1_EEixEm(ptr noundef nonnull align 8 dereferenceable(24) %0, i64 noundef %1) #0 comdat align 2 {
  %3 = alloca ptr, align 8
  %4 = alloca i64, align 8
  store ptr %0, ptr %3, align 8, !tbaa !147
  store i64 %1, ptr %4, align 8, !tbaa !82
  %5 = load ptr, ptr %3, align 8
  %6 = getelementptr inbounds nuw %"struct.std::_Vector_base.17", ptr %5, i32 0, i32 0
  %7 = getelementptr inbounds nuw %"struct.std::_Vector_base<std::vector<unsigned char>, std::allocator<std::vector<unsigned char>>>::_Vector_impl_data", ptr %6, i32 0, i32 0
  %8 = load ptr, ptr %7, align 8, !tbaa !157
  %9 = load i64, ptr %4, align 8, !tbaa !82
  %10 = getelementptr inbounds nuw %"class.std::vector.3", ptr %8, i64 %9
  ret ptr %10
}

; Function Attrs: inlinehint mustprogress uwtable
define internal void @"_ZZN2cv17QRCodeDecoderImpl15errorCorrectionERSt6vectorIhSaIhEEENK3$_0clERKNS_5RangeE"(ptr noundef nonnull align 8 dereferenceable(16) %0, ptr noundef nonnull align 4 dereferenceable(8) %1) #6 align 2 {
  %3 = alloca ptr, align 8
  %4 = alloca ptr, align 8
  %5 = alloca i32, align 4
  %6 = alloca i32, align 4
  store ptr %0, ptr %3, align 8, !tbaa !74
  store ptr %1, ptr %4, align 8, !tbaa !198
  %7 = load ptr, ptr %3, align 8
  %8 = getelementptr inbounds nuw %class.anon, ptr %7, i32 0, i32 0
  %9 = load ptr, ptr %8, align 8, !tbaa !290
  call void @llvm.lifetime.start.p0(i64 4, ptr %5) #21
  %10 = load ptr, ptr %4, align 8, !tbaa !198
  %11 = getelementptr inbounds nuw %"class.cv::Range", ptr %10, i32 0, i32 0
  %12 = load i32, ptr %11, align 4, !tbaa !200
  store i32 %12, ptr %5, align 4, !tbaa !29
  br label %13

13:                                               ; preds = %34, %2
  %14 = load i32, ptr %5, align 4, !tbaa !29
  %15 = load ptr, ptr %4, align 8, !tbaa !198
  %16 = getelementptr inbounds nuw %"class.cv::Range", ptr %15, i32 0, i32 1
  %17 = load i32, ptr %16, align 4, !tbaa !202
  %18 = icmp slt i32 %14, %17
  br i1 %18, label %20, label %19

19:                                               ; preds = %13
  store i32 2, ptr %6, align 4
  br label %37

20:                                               ; preds = %13
  %21 = getelementptr inbounds nuw %class.anon, ptr %7, i32 0, i32 1
  %22 = load ptr, ptr %21, align 8, !tbaa !564
  %23 = load i32, ptr %5, align 4, !tbaa !29
  %24 = sext i32 %23 to i64
  %25 = call noundef nonnull align 8 dereferenceable(24) ptr @_ZNSt6vectorIS_IhSaIhEESaIS1_EEixEm(ptr noundef nonnull align 8 dereferenceable(24) %22, i64 noundef %24) #21
  %26 = call noundef zeroext i1 @_ZN2cv17QRCodeDecoderImpl20errorCorrectionBlockERSt6vectorIhSaIhEE(ptr noundef nonnull align 8 dereferenceable(72) %9, ptr noundef nonnull align 8 dereferenceable(24) %25)
  br i1 %26, label %33, label %27

27:                                               ; preds = %20
  %28 = getelementptr inbounds nuw %class.anon, ptr %7, i32 0, i32 1
  %29 = load ptr, ptr %28, align 8, !tbaa !564
  %30 = load i32, ptr %5, align 4, !tbaa !29
  %31 = sext i32 %30 to i64
  %32 = call noundef nonnull align 8 dereferenceable(24) ptr @_ZNSt6vectorIS_IhSaIhEESaIS1_EEixEm(ptr noundef nonnull align 8 dereferenceable(24) %29, i64 noundef %31) #21
  call void @_ZNSt6vectorIhSaIhEE5clearEv(ptr noundef nonnull align 8 dereferenceable(24) %32) #21
  store i32 1, ptr %6, align 4
  br label %37

33:                                               ; preds = %20
  br label %34

34:                                               ; preds = %33
  %35 = load i32, ptr %5, align 4, !tbaa !29
  %36 = add nsw i32 %35, 1
  store i32 %36, ptr %5, align 4, !tbaa !29
  br label %13, !llvm.loop !565

37:                                               ; preds = %27, %19
  call void @llvm.lifetime.end.p0(i64 4, ptr %5) #21
  %38 = load i32, ptr %6, align 4
  switch i32 %38, label %40 [
    i32 2, label %39
    i32 1, label %39
  ]

39:                                               ; preds = %37, %37
  ret void

40:                                               ; preds = %37
  unreachable
}

; Function Attrs: mustprogress nounwind uwtable
define linkonce_odr hidden noundef ptr @_ZNKSt9_Any_data9_M_accessEv(ptr noundef nonnull align 8 dereferenceable(16) %0) #0 comdat align 2 {
  %2 = alloca ptr, align 8
  store ptr %0, ptr %2, align 8, !tbaa !559
  %3 = load ptr, ptr %2, align 8
  %4 = getelementptr inbounds [16 x i8], ptr %3, i64 0, i64 0
  ret ptr %4
}

; Function Attrs: mustprogress uwtable
define internal void @"_ZSt13__invoke_implIvRZN2cv17QRCodeDecoderImpl15errorCorrectionERSt6vectorIhSaIhEEE3$_0JRKNS0_5RangeEEET_St14__invoke_otherOT0_DpOT1_"(ptr noundef nonnull align 8 dereferenceable(16) %0, ptr noundef nonnull align 4 dereferenceable(8) %1) #2 {
  %3 = alloca ptr, align 8
  %4 = alloca ptr, align 8
  store ptr %0, ptr %3, align 8, !tbaa !74
  store ptr %1, ptr %4, align 8, !tbaa !198
  %5 = load ptr, ptr %3, align 8, !tbaa !74
  %6 = load ptr, ptr %4, align 8, !tbaa !198
  call void @"_ZZN2cv17QRCodeDecoderImpl15errorCorrectionERSt6vectorIhSaIhEEENK3$_0clERKNS_5RangeE"(ptr noundef nonnull align 8 dereferenceable(16) %5, ptr noundef nonnull align 4 dereferenceable(8) %6)
  ret void
}

; Function Attrs: mustprogress nounwind uwtable
define internal noundef nonnull align 8 dereferenceable(16) ptr @"_ZNKSt9_Any_data9_M_accessIZN2cv17QRCodeDecoderImpl15errorCorrectionERSt6vectorIhSaIhEEE3$_0EERKT_v"(ptr noundef nonnull align 8 dereferenceable(16) %0) #0 align 2 {
  %2 = alloca ptr, align 8
  store ptr %0, ptr %2, align 8, !tbaa !559
  %3 = load ptr, ptr %2, align 8
  %4 = call noundef ptr @_ZNKSt9_Any_data9_M_accessEv(ptr noundef nonnull align 8 dereferenceable(16) %3) #21
  ret ptr %4
}

; Function Attrs: mustprogress uwtable
define internal void @"_ZSt10__invoke_rIvRZN2cv17QRCodeDecoderImpl15errorCorrectionERSt6vectorIhSaIhEEE3$_0JRKNS0_5RangeEEENSt9enable_ifIXsr6__and_ISt7is_voidIT_ESt14__is_invocableIT0_JDpT1_EEEE5valueESD_E4typeEOSG_DpOSH_"(ptr noundef nonnull align 8 dereferenceable(16) %0, ptr noundef nonnull align 4 dereferenceable(8) %1) #2 {
  %3 = alloca ptr, align 8
  %4 = alloca ptr, align 8
  store ptr %0, ptr %3, align 8, !tbaa !74
  store ptr %1, ptr %4, align 8, !tbaa !198
  %5 = load ptr, ptr %3, align 8, !tbaa !74
  %6 = load ptr, ptr %4, align 8, !tbaa !198
  call void @"_ZSt13__invoke_implIvRZN2cv17QRCodeDecoderImpl15errorCorrectionERSt6vectorIhSaIhEEE3$_0JRKNS0_5RangeEEET_St14__invoke_otherOT0_DpOT1_"(ptr noundef nonnull align 8 dereferenceable(16) %5, ptr noundef nonnull align 4 dereferenceable(8) %6)
  ret void
}

; Function Attrs: mustprogress nounwind uwtable
define internal noundef ptr @"_ZNSt14_Function_base13_Base_managerIZN2cv17QRCodeDecoderImpl15errorCorrectionERSt6vectorIhSaIhEEE3$_0E14_M_get_pointerERKSt9_Any_data"(ptr noundef nonnull align 8 dereferenceable(16) %0) #0 align 2 {
  %2 = alloca ptr, align 8
  %3 = alloca ptr, align 8
  store ptr %0, ptr %2, align 8, !tbaa !559
  call void @llvm.lifetime.start.p0(i64 8, ptr %3) #21
  %4 = load ptr, ptr %2, align 8, !tbaa !559
  %5 = call noundef nonnull align 8 dereferenceable(16) ptr @"_ZNKSt9_Any_data9_M_accessIZN2cv17QRCodeDecoderImpl15errorCorrectionERSt6vectorIhSaIhEEE3$_0EERKT_v"(ptr noundef nonnull align 8 dereferenceable(16) %4) #21
  store ptr %5, ptr %3, align 8, !tbaa !74
  %6 = load ptr, ptr %3, align 8, !tbaa !74
  call void @llvm.lifetime.end.p0(i64 8, ptr %3) #21
  ret ptr %6
}

; Function Attrs: mustprogress uwtable
define internal void @"_ZNSt17_Function_handlerIFvRKN2cv5RangeEEZNS0_17QRCodeDecoderImpl15errorCorrectionERSt6vectorIhSaIhEEE3$_0E9_M_invokeERKSt9_Any_dataS3_"(ptr noundef nonnull align 8 dereferenceable(16) %0, ptr noundef nonnull align 4 dereferenceable(8) %1) #2 align 2 {
  %3 = alloca ptr, align 8
  %4 = alloca ptr, align 8
  store ptr %0, ptr %3, align 8, !tbaa !559
  store ptr %1, ptr %4, align 8, !tbaa !198
  %5 = load ptr, ptr %3, align 8, !tbaa !559
  %6 = call noundef ptr @"_ZNSt14_Function_base13_Base_managerIZN2cv17QRCodeDecoderImpl15errorCorrectionERSt6vectorIhSaIhEEE3$_0E14_M_get_pointerERKSt9_Any_data"(ptr noundef nonnull align 8 dereferenceable(16) %5) #21
  %7 = load ptr, ptr %4, align 8, !tbaa !198
  call void @"_ZSt10__invoke_rIvRZN2cv17QRCodeDecoderImpl15errorCorrectionERSt6vectorIhSaIhEEE3$_0JRKNS0_5RangeEEENSt9enable_ifIXsr6__and_ISt7is_voidIT_ESt14__is_invocableIT0_JDpT1_EEEE5valueESD_E4typeEOSG_DpOSH_"(ptr noundef nonnull align 8 dereferenceable(16) %6, ptr noundef nonnull align 4 dereferenceable(8) %7)
  ret void
}