; Function Attrs: mustprogress uwtable
define internal void @"_ZNSt17_Function_handlerIFvRKN2cv5RangeEEZNS0_17QRCodeDecoderImpl15errorCorrectionERSt6vectorIhSaIhEEE3$_0E9_M_invokeERKSt9_Any_dataS3_"(ptr noundef nonnull readonly align 8 captures(none) dereferenceable(16) %0, ptr noundef nonnull readonly align 4 captures(none) dereferenceable(8) %1) #4 align 2 personality ptr @__gxx_personality_v0 {
  %3 = load ptr, ptr %0, align 8, !tbaa !352
  %4 = load i32, ptr %1, align 4, !tbaa !247
  %5 = getelementptr inbounds nuw i8, ptr %1, i64 4
  %6 = load i32, ptr %5, align 4, !tbaa !249
  %7 = icmp slt i32 %4, %6
  br i1 %7, label %.lr.ph.i.i.i, label %"_ZSt10__invoke_rIvRZN2cv17QRCodeDecoderImpl15errorCorrectionERSt6vectorIhSaIhEEE3$_0JRKNS0_5RangeEEENSt9enable_ifIXsr6__and_ISt7is_voidIT_ESt14__is_invocableIT0_JDpT1_EEEE5valueESD_E4typeEOSG_DpOSH_.exit"

.lr.ph.i.i.i:                                     ; preds = %2
  %8 = getelementptr inbounds nuw i8, ptr %0, i64 8
  %9 = sext i32 %4 to i64
  br label %14

10:                                               ; preds = %14
  %indvars.iv.next.i.i.i = add nsw i64 %indvars.iv.i.i.i, 1
  %11 = load i32, ptr %5, align 4, !tbaa !249
  %12 = sext i32 %11 to i64
  %13 = icmp slt i64 %indvars.iv.next.i.i.i, %12
  br i1 %13, label %14, label %"_ZSt10__invoke_rIvRZN2cv17QRCodeDecoderImpl15errorCorrectionERSt6vectorIhSaIhEEE3$_0JRKNS0_5RangeEEENSt9enable_ifIXsr6__and_ISt7is_voidIT_ESt14__is_invocableIT0_JDpT1_EEEE5valueESD_E4typeEOSG_DpOSH_.exit", !llvm.loop !354

14:                                               ; preds = %10, %.lr.ph.i.i.i
  %indvars.iv.i.i.i = phi i64 [ %9, %.lr.ph.i.i.i ], [ %indvars.iv.next.i.i.i, %10 ]
  %15 = load ptr, ptr %8, align 8, !tbaa !355
  %16 = load ptr, ptr %15, align 8, !tbaa !90
  %17 = getelementptr inbounds nuw %"class.std::vector.3", ptr %16, i64 %indvars.iv.i.i.i
  %18 = tail call noundef zeroext i1 @_ZN2cv17QRCodeDecoderImpl20errorCorrectionBlockERSt6vectorIhSaIhEE(ptr noundef nonnull align 8 dereferenceable(72) %3, ptr noundef nonnull align 8 dereferenceable(24) %17)
  br i1 %18, label %10, label %19

19:                                               ; preds = %14
  %20 = load ptr, ptr %8, align 8, !tbaa !355
  %21 = load ptr, ptr %20, align 8, !tbaa !90
  %22 = getelementptr inbounds nuw %"class.std::vector.3", ptr %21, i64 %indvars.iv.i.i.i
  %23 = load ptr, ptr %22, align 8, !tbaa !60
  %24 = getelementptr inbounds nuw i8, ptr %22, i64 8
  %25 = load ptr, ptr %24, align 8, !tbaa !59
  %.not.i.i.i.i.i = icmp eq ptr %25, %23
  br i1 %.not.i.i.i.i.i, label %"_ZSt10__invoke_rIvRZN2cv17QRCodeDecoderImpl15errorCorrectionERSt6vectorIhSaIhEEE3$_0JRKNS0_5RangeEEENSt9enable_ifIXsr6__and_ISt7is_voidIT_ESt14__is_invocableIT0_JDpT1_EEEE5valueESD_E4typeEOSG_DpOSH_.exit", label %26

26:                                               ; preds = %19
  store ptr %23, ptr %24, align 8, !tbaa !59
  br label %"_ZSt10__invoke_rIvRZN2cv17QRCodeDecoderImpl15errorCorrectionERSt6vectorIhSaIhEEE3$_0JRKNS0_5RangeEEENSt9enable_ifIXsr6__and_ISt7is_voidIT_ESt14__is_invocableIT0_JDpT1_EEEE5valueESD_E4typeEOSG_DpOSH_.exit"

"_ZSt10__invoke_rIvRZN2cv17QRCodeDecoderImpl15errorCorrectionERSt6vectorIhSaIhEEE3$_0JRKNS0_5RangeEEENSt9enable_ifIXsr6__and_ISt7is_voidIT_ESt14__is_invocableIT0_JDpT1_EEEE5valueESD_E4typeEOSG_DpOSH_.exit": ; preds = %10, %2, %19, %26
  ret void
}